target datalayout = "e-m:e-p270:32:32-p271:32:32-p272:64:64-i64:64-i128:128-f80:128-n8:16:32:64-S128"
target triple = "x86_64-unknown-linux-gnu"

%"class.std::__shared_count" = type { ptr }
%"class.std::shared_ptr" = type { %"class.std::__shared_ptr" }
%"class.std::__shared_ptr" = type { ptr, %"class.std::__shared_count" }
%"class.facebook::velox::BaseVector" = type <{ ptr, %"class.std::shared_ptr", i8, [3 x i8], i32, %"class.boost::intrusive_ptr", ptr, ptr, i32, %"class.std::optional.34", %"class.std::optional.34", %"class.std::optional.34", %"class.std::optional.34", i32, i8, i8, i8, [5 x i8] }>
%"class.boost::intrusive_ptr" = type { ptr }
%"class.std::optional.34" = type { %"struct.std::_Optional_base.35" }
%"struct.std::_Optional_base.35" = type { %"struct.std::_Optional_payload.37" }
%"struct.std::_Optional_payload.37" = type { %"struct.std::_Optional_payload_base.base", [3 x i8] }
%"struct.std::_Optional_payload_base.base" = type <{ %"union.std::_Optional_payload_base<int>::_Storage", i8 }>
%"union.std::_Optional_payload_base<int>::_Storage" = type { i32 }
%"struct.facebook::velox::StringView" = type { i32, [4 x i8], %union.anon.118 }
%union.anon.118 = type { ptr }
%class.anon.180 = type { ptr, ptr, ptr, ptr }

; Function Attrs: mustprogress uwtable
define linkonce_odr noundef zeroext i1 @_ZNK8facebook5velox10StringView8isInlineEv(ptr noundef nonnull align 8 dereferenceable(16) %this) #0 comdat align 2 {
entry:
  %size.addr.i = alloca i32, align 4
  %this.addr = alloca ptr, align 8
  store ptr %this, ptr %this.addr, align 8
  %this1 = load ptr, ptr %this.addr, align 8
  %size_ = getelementptr inbounds %"struct.facebook::velox::StringView", ptr %this1, i32 0, i32 0
  %0 = load i32, ptr %size_, align 8
  store i32 %0, ptr %size.addr.i, align 4
  %1 = load i32, ptr %size.addr.i, align 4
  %conv.i = zext i32 %1 to i64
  %cmp.i = icmp ule i64 %conv.i, 12
  ret i1 %cmp.i
}

; Function Attrs: mustprogress uwtable
define linkonce_odr void @_ZN8facebook5velox10StringViewC2EPKci(ptr noundef nonnull align 8 dereferenceable(16) %this, ptr noundef %data, i32 noundef %len) unnamed_addr #0 comdat align 2 {
entry:
  %this.addr = alloca ptr, align 8
  %data.addr = alloca ptr, align 8
  %len.addr = alloca i32, align 4
  store ptr %this, ptr %this.addr, align 8
  store ptr %data, ptr %data.addr, align 8
  store i32 %len, ptr %len.addr, align 4
  %this1 = load ptr, ptr %this.addr, align 8
  %size_ = getelementptr inbounds %"struct.facebook::velox::StringView", ptr %this1, i32 0, i32 0
  %0 = load i32, ptr %len.addr, align 4
  store i32 %0, ptr %size_, align 8
  %1 = load i32, ptr %len.addr, align 4
  %cmp = icmp sge i32 %1, 0
  %lnot = xor i1 %cmp, true
  br i1 %lnot, label %if.then, label %if.end

if.then:                                          ; preds = %entry
  call void @llvm.trap()
  br label %if.end

if.end:                                           ; preds = %if.then, %entry
  %call = call noundef zeroext i1 @_ZNK8facebook5velox10StringView8isInlineEv(ptr noundef nonnull align 8 dereferenceable(16) %this1)
  br i1 %call, label %if.then2, label %if.else

if.then2:                                         ; preds = %if.end
  %prefix_ = getelementptr inbounds %"struct.facebook::velox::StringView", ptr %this1, i32 0, i32 1
  %arraydecay = getelementptr inbounds [4 x i8], ptr %prefix_, i64 0, i64 0
  call void @llvm.memset.p0.i64(ptr align 4 %arraydecay, i8 0, i64 4, i1 false)
  %size_3 = getelementptr inbounds %"struct.facebook::velox::StringView", ptr %this1, i32 0, i32 0
  %2 = load i32, ptr %size_3, align 8
  %cmp4 = icmp eq i32 %2, 0
  br i1 %cmp4, label %if.then5, label %if.end6

if.then5:                                         ; preds = %if.then2
  br label %if.end14

if.end6:                                          ; preds = %if.then2
  %value_7 = getelementptr inbounds %"struct.facebook::velox::StringView", ptr %this1, i32 0, i32 2
  store ptr null, ptr %value_7, align 8
  %prefix_8 = getelementptr inbounds %"struct.facebook::velox::StringView", ptr %this1, i32 0, i32 1
  %arraydecay9 = getelementptr inbounds [4 x i8], ptr %prefix_8, i64 0, i64 0
  %3 = load ptr, ptr %data.addr, align 8
  %size_10 = getelementptr inbounds %"struct.facebook::velox::StringView", ptr %this1, i32 0, i32 0
  %4 = load i32, ptr %size_10, align 8
  %conv = zext i32 %4 to i64
  call void @llvm.memcpy.p0.p0.i64(ptr align 4 %arraydecay9, ptr align 1 %3, i64 %conv, i1 false)
  br label %if.end14

if.else:                                          ; preds = %if.end
  %prefix_11 = getelementptr inbounds %"struct.facebook::velox::StringView", ptr %this1, i32 0, i32 1
  %arraydecay12 = getelementptr inbounds [4 x i8], ptr %prefix_11, i64 0, i64 0
  %5 = load ptr, ptr %data.addr, align 8
  call void @llvm.memcpy.p0.p0.i64(ptr align 4 %arraydecay12, ptr align 1 %5, i64 4, i1 false)
  %6 = load ptr, ptr %data.addr, align 8
  %value_13 = getelementptr inbounds %"struct.facebook::velox::StringView", ptr %this1, i32 0, i32 2
  store ptr %6, ptr %value_13, align 8
  br label %if.end14

if.end14:                                         ; preds = %if.else, %if.end6, %if.then5
  ret void
}

; Function Attrs: mustprogress uwtable
define linkonce_odr void @_ZN8facebook5velox10StringViewC2ERKNSt7__cxx1112basic_stringIcSt11char_traitsIcESaIcEEE(ptr noundef nonnull align 8 dereferenceable(16) %this, ptr noundef nonnull align 8 dereferenceable(32) %value) unnamed_addr #0 comdat align 2 {
entry:
  %this.addr = alloca ptr, align 8
  %value.addr = alloca ptr, align 8
  store ptr %this, ptr %this.addr, align 8
  store ptr %value, ptr %value.addr, align 8
  %this1 = load ptr, ptr %this.addr, align 8
  %0 = load ptr, ptr %value.addr, align 8
  %call = call noundef ptr @_ZNKSt7__cxx1112basic_stringIcSt11char_traitsIcESaIcEE4dataEv(ptr noundef nonnull align 8 dereferenceable(32) %0) #4
  %1 = load ptr, ptr %value.addr, align 8
  %call2 = call noundef i64 @_ZNKSt7__cxx1112basic_stringIcSt11char_traitsIcESaIcEE4sizeEv(ptr noundef nonnull align 8 dereferenceable(32) %1) #4
  %conv = trunc i64 %call2 to i32
  call void @_ZN8facebook5velox10StringViewC2EPKci(ptr noundef nonnull align 8 dereferenceable(16) %this1, ptr noundef %call, i32 noundef %conv)
  ret void
}

; Function Attrs: mustprogress nounwind uwtable
define linkonce_odr noundef nonnull align 8 dereferenceable(16) ptr @_ZNK8facebook5velox10BaseVector4typeEv(ptr noundef nonnull align 8 dereferenceable(99) %this) #1 comdat align 2 {
entry:
  %this.addr = alloca ptr, align 8
  store ptr %this, ptr %this.addr, align 8
  %this1 = load ptr, ptr %this.addr, align 8
  %type_ = getelementptr inbounds %"class.facebook::velox::BaseVector", ptr %this1, i32 0, i32 1
  ret ptr %type_
}

; Function Attrs: mustprogress uwtable
define internal void @_ZZN8facebook5velox12_GLOBAL__N_110castToJsonILNS0_8TypeKindE3ETnNSt9enable_ifIXsr10TypeTraitsIXT_EEE15isPrimitiveTypeEiE4typeELi0EEEvRKNS0_10BaseVectorERNS0_4exec7EvalCtxERKNS0_17SelectivityVectorERNS0_10FlatVectorINS0_10StringViewEEEbENKUlT_E0_clIiEEDaSK_(ptr noundef nonnull align 8 dereferenceable(32) %this, i32 noundef %row) #0 align 2 {
entry:
  %this.addr = alloca ptr, align 8
  %row.addr = alloca i32, align 4
  %agg.tmp = alloca %"struct.facebook::velox::StringView", align 8
  store ptr %this, ptr %this.addr, align 8
  store i32 %row, ptr %row.addr, align 4
  %this1 = load ptr, ptr %this.addr, align 8
  %0 = getelementptr inbounds %class.anon.180, ptr %this1, i32 0, i32 0
  %1 = load ptr, ptr %0, align 8
  %2 = load ptr, ptr %1, align 8
  %3 = load i32, ptr %row.addr, align 4
  %vtable = load ptr, ptr %2, align 8
  %vfn = getelementptr inbounds ptr, ptr %vtable, i64 4
  %4 = load ptr, ptr %vfn, align 8
  %call = call noundef zeroext i1 %4(ptr noundef nonnull align 8 dereferenceable(99) %2, i32 noundef %3)
  br i1 %call, label %if.then, label %if.else

if.then:                                          ; preds = %entry
  call void @llvm.trap()
  br label %if.end

if.else:                                          ; preds = %entry
  %5 = getelementptr inbounds %class.anon.180, ptr %this1, i32 0, i32 1
  %6 = load ptr, ptr %5, align 8
  call void @_ZNSt7__cxx1112basic_stringIcSt11char_traitsIcESaIcEE5clearEv(ptr noundef nonnull align 8 dereferenceable(32) %6) #4
  %7 = getelementptr inbounds %class.anon.180, ptr %this1, i32 0, i32 0
  %8 = load ptr, ptr %7, align 8
  %9 = load ptr, ptr %8, align 8
  %10 = load i32, ptr %row.addr, align 4
  %11 = getelementptr inbounds %class.anon.180, ptr %this1, i32 0, i32 1
  %12 = load ptr, ptr %11, align 8
  %13 = getelementptr inbounds %class.anon.180, ptr %this1, i32 0, i32 2
  %14 = load ptr, ptr %13, align 8
  %call2 = call noundef nonnull align 8 dereferenceable(16) ptr @_ZNK8facebook5velox10BaseVector4typeEv(ptr noundef nonnull align 8 dereferenceable(99) %14)
  call void @_ZN8facebook5velox12_GLOBAL__N_117generateJsonTypedIiLb1EEEvRKNS0_12SimpleVectorIT_EEiRNSt7__cxx1112basic_stringIcSt11char_traitsIcESaIcEEERKSt10shared_ptrIKNS0_4TypeEE(ptr noundef nonnull align 8 dereferenceable(124) %9, i32 noundef %10, ptr noundef nonnull align 8 dereferenceable(32) %12, ptr noundef nonnull align 8 dereferenceable(16) %call2)
  %15 = getelementptr inbounds %class.anon.180, ptr %this1, i32 0, i32 3
  %16 = load ptr, ptr %15, align 8
  %17 = load i32, ptr %row.addr, align 4
  %18 = getelementptr inbounds %class.anon.180, ptr %this1, i32 0, i32 1
  %19 = load ptr, ptr %18, align 8
  call void @_ZN8facebook5velox10StringViewC2ERKNSt7__cxx1112basic_stringIcSt11char_traitsIcESaIcEEE(ptr noundef nonnull align 8 dereferenceable(16) %agg.tmp, ptr noundef nonnull align 8 dereferenceable(32) %19)
  %20 = getelementptr inbounds { i64, ptr }, ptr %agg.tmp, i32 0, i32 0
  %21 = load i64, ptr %20, align 8
  %22 = getelementptr inbounds { i64, ptr }, ptr %agg.tmp, i32 0, i32 1
  %23 = load ptr, ptr %22, align 8
  call void @_ZN8facebook5velox10FlatVectorINS0_10StringViewEE3setEiS2_(ptr noundef nonnull align 8 dereferenceable(280) %16, i32 noundef %17, i64 %21, ptr %23)
  br label %if.end

if.end:                                           ; preds = %if.else, %if.then
  ret void
}